target datalayout = "e-m:e-p270:32:32-p271:32:32-p272:64:64-i64:64-i128:128-f80:128-n8:16:32:64-S128"
target triple = "x86_64-pc-linux-gnu"

%struct.LexState = type { i32, i32, i32, %struct.Token, %struct.Token, ptr, ptr, ptr, ptr, ptr, ptr, ptr, ptr }
%struct.Token = type { i32, %union.SemInfo }
%union.SemInfo = type { double }
%struct.Mbuffer = type { ptr, i64, i64 }
%struct.Zio = type { i64, ptr, ptr, ptr, ptr }

@.str.42 = private unnamed_addr constant [25 x i8] c"lexical element too long\00", align 1

; Function Attrs: nounwind uwtable
define internal void @save(ptr noundef %0, i32 noundef %1) #0 {
  %3 = alloca ptr, align 8
  %4 = alloca i32, align 4
  %5 = alloca ptr, align 8
  %6 = alloca i64, align 8
  store ptr %0, ptr %3, align 8, !tbaa !18
  store i32 %1, ptr %4, align 4, !tbaa !11
  call void @llvm.lifetime.start.p0(i64 8, ptr %5) #6
  %7 = load ptr, ptr %3, align 8, !tbaa !18
  %8 = getelementptr inbounds nuw %struct.LexState, ptr %7, i32 0, i32 8
  %9 = load ptr, ptr %8, align 8, !tbaa !61
  store ptr %9, ptr %5, align 8, !tbaa !72
  %10 = load ptr, ptr %5, align 8, !tbaa !72
  %11 = getelementptr inbounds nuw %struct.Mbuffer, ptr %10, i32 0, i32 1
  %12 = load i64, ptr %11, align 8, !tbaa !67
  %13 = add i64 %12, 1
  %14 = load ptr, ptr %5, align 8, !tbaa !72
  %15 = getelementptr inbounds nuw %struct.Mbuffer, ptr %14, i32 0, i32 2
  %16 = load i64, ptr %15, align 8, !tbaa !64
  %17 = icmp ugt i64 %13, %16
  br i1 %17, label %18, label %48

18:                                               ; preds = %2
  call void @llvm.lifetime.start.p0(i64 8, ptr %6) #6
  %19 = load ptr, ptr %5, align 8, !tbaa !72
  %20 = getelementptr inbounds nuw %struct.Mbuffer, ptr %19, i32 0, i32 2
  %21 = load i64, ptr %20, align 8, !tbaa !64
  %22 = icmp uge i64 %21, 4611686018427387903
  br i1 %22, label %23, label %25

23:                                               ; preds = %18
  %24 = load ptr, ptr %3, align 8, !tbaa !18
  call void @lexerror(ptr noundef %24, ptr noundef @.str.42, i32 noundef 0) #7
  unreachable

25:                                               ; preds = %18
  %26 = load ptr, ptr %5, align 8, !tbaa !72
  %27 = getelementptr inbounds nuw %struct.Mbuffer, ptr %26, i32 0, i32 2
  %28 = load i64, ptr %27, align 8, !tbaa !64
  %29 = mul i64 %28, 2
  store i64 %29, ptr %6, align 8, !tbaa !32
  %30 = load ptr, ptr %3, align 8, !tbaa !18
  %31 = getelementptr inbounds nuw %struct.LexState, ptr %30, i32 0, i32 6
  %32 = load ptr, ptr %31, align 8, !tbaa !21
  %33 = load ptr, ptr %5, align 8, !tbaa !72
  %34 = getelementptr inbounds nuw %struct.Mbuffer, ptr %33, i32 0, i32 0
  %35 = load ptr, ptr %34, align 8, !tbaa !62
  %36 = load ptr, ptr %5, align 8, !tbaa !72
  %37 = getelementptr inbounds nuw %struct.Mbuffer, ptr %36, i32 0, i32 2
  %38 = load i64, ptr %37, align 8, !tbaa !64
  %39 = mul i64 %38, 1
  %40 = load i64, ptr %6, align 8, !tbaa !32
  %41 = mul i64 %40, 1
  %42 = call ptr @luaM_saferealloc_(ptr noundef %32, ptr noundef %35, i64 noundef %39, i64 noundef %41)
  %43 = load ptr, ptr %5, align 8, !tbaa !72
  %44 = getelementptr inbounds nuw %struct.Mbuffer, ptr %43, i32 0, i32 0
  store ptr %42, ptr %44, align 8, !tbaa !62
  %45 = load i64, ptr %6, align 8, !tbaa !32
  %46 = load ptr, ptr %5, align 8, !tbaa !72
  %47 = getelementptr inbounds nuw %struct.Mbuffer, ptr %46, i32 0, i32 2
  store i64 %45, ptr %47, align 8, !tbaa !64
  call void @llvm.lifetime.end.p0(i64 8, ptr %6) #6
  br label %48

48:                                               ; preds = %25, %2
  %49 = load i32, ptr %4, align 4, !tbaa !11
  %50 = trunc i32 %49 to i8
  %51 = load ptr, ptr %5, align 8, !tbaa !72
  %52 = getelementptr inbounds nuw %struct.Mbuffer, ptr %51, i32 0, i32 0
  %53 = load ptr, ptr %52, align 8, !tbaa !62
  %54 = load ptr, ptr %5, align 8, !tbaa !72
  %55 = getelementptr inbounds nuw %struct.Mbuffer, ptr %54, i32 0, i32 1
  %56 = load i64, ptr %55, align 8, !tbaa !67
  %57 = add i64 %56, 1
  store i64 %57, ptr %55, align 8, !tbaa !67
  %58 = getelementptr inbounds nuw i8, ptr %53, i64 %56
  store i8 %50, ptr %58, align 1, !tbaa !20
  call void @llvm.lifetime.end.p0(i64 8, ptr %5) #6
  ret void
}

; Function Attrs: nounwind uwtable
define internal i64 @skip_sep(ptr noundef %0) #0 {
  %2 = alloca ptr, align 8
  %3 = alloca i64, align 8
  %4 = alloca i32, align 4
  store ptr %0, ptr %2, align 8, !tbaa !18
  call void @llvm.lifetime.start.p0(i64 8, ptr %3) #6
  store i64 0, ptr %3, align 8, !tbaa !32
  call void @llvm.lifetime.start.p0(i64 4, ptr %4) #6
  %5 = load ptr, ptr %2, align 8, !tbaa !18
  %6 = getelementptr inbounds nuw %struct.LexState, ptr %5, i32 0, i32 0
  %7 = load i32, ptr %6, align 8, !tbaa !55
  store i32 %7, ptr %4, align 4, !tbaa !11
  %8 = load ptr, ptr %2, align 8, !tbaa !18
  %9 = load ptr, ptr %2, align 8, !tbaa !18
  %10 = getelementptr inbounds nuw %struct.LexState, ptr %9, i32 0, i32 0
  %11 = load i32, ptr %10, align 8, !tbaa !55
  call void @save(ptr noundef %8, i32 noundef %11)
  %12 = load ptr, ptr %2, align 8, !tbaa !18
  %13 = getelementptr inbounds nuw %struct.LexState, ptr %12, i32 0, i32 7
  %14 = load ptr, ptr %13, align 8, !tbaa !57
  %15 = getelementptr inbounds nuw %struct.Zio, ptr %14, i32 0, i32 0
  %16 = load i64, ptr %15, align 8, !tbaa !68
  %17 = add i64 %16, -1
  store i64 %17, ptr %15, align 8, !tbaa !68
  %18 = icmp ugt i64 %16, 0
  br i1 %18, label %19, label %28

19:                                               ; preds = %1
  %20 = load ptr, ptr %2, align 8, !tbaa !18
  %21 = getelementptr inbounds nuw %struct.LexState, ptr %20, i32 0, i32 7
  %22 = load ptr, ptr %21, align 8, !tbaa !57
  %23 = getelementptr inbounds nuw %struct.Zio, ptr %22, i32 0, i32 1
  %24 = load ptr, ptr %23, align 8, !tbaa !70
  %25 = getelementptr inbounds nuw i8, ptr %24, i32 1
  store ptr %25, ptr %23, align 8, !tbaa !70
  %26 = load i8, ptr %24, align 1, !tbaa !20
  %27 = zext i8 %26 to i32
  br label %33

28:                                               ; preds = %1
  %29 = load ptr, ptr %2, align 8, !tbaa !18
  %30 = getelementptr inbounds nuw %struct.LexState, ptr %29, i32 0, i32 7
  %31 = load ptr, ptr %30, align 8, !tbaa !57
  %32 = call i32 @luaZ_fill(ptr noundef %31)
  br label %33

33:                                               ; preds = %28, %19
  %34 = phi i32 [ %27, %19 ], [ %32, %28 ]
  %35 = load ptr, ptr %2, align 8, !tbaa !18
  %36 = getelementptr inbounds nuw %struct.LexState, ptr %35, i32 0, i32 0
  store i32 %34, ptr %36, align 8, !tbaa !55
  br label %37

37:                                               ; preds = %68, %33
  %38 = load ptr, ptr %2, align 8, !tbaa !18
  %39 = getelementptr inbounds nuw %struct.LexState, ptr %38, i32 0, i32 0
  %40 = load i32, ptr %39, align 8, !tbaa !55
  %41 = icmp eq i32 %40, 61
  br i1 %41, label %42, label %74

42:                                               ; preds = %37
  %43 = load ptr, ptr %2, align 8, !tbaa !18
  %44 = load ptr, ptr %2, align 8, !tbaa !18
  %45 = getelementptr inbounds nuw %struct.LexState, ptr %44, i32 0, i32 0
  %46 = load i32, ptr %45, align 8, !tbaa !55
  call void @save(ptr noundef %43, i32 noundef %46)
  %47 = load ptr, ptr %2, align 8, !tbaa !18
  %48 = getelementptr inbounds nuw %struct.LexState, ptr %47, i32 0, i32 7
  %49 = load ptr, ptr %48, align 8, !tbaa !57
  %50 = getelementptr inbounds nuw %struct.Zio, ptr %49, i32 0, i32 0
  %51 = load i64, ptr %50, align 8, !tbaa !68
  %52 = add i64 %51, -1
  store i64 %52, ptr %50, align 8, !tbaa !68
  %53 = icmp ugt i64 %51, 0
  br i1 %53, label %54, label %63

54:                                               ; preds = %42
  %55 = load ptr, ptr %2, align 8, !tbaa !18
  %56 = getelementptr inbounds nuw %struct.LexState, ptr %55, i32 0, i32 7
  %57 = load ptr, ptr %56, align 8, !tbaa !57
  %58 = getelementptr inbounds nuw %struct.Zio, ptr %57, i32 0, i32 1
  %59 = load ptr, ptr %58, align 8, !tbaa !70
  %60 = getelementptr inbounds nuw i8, ptr %59, i32 1
  store ptr %60, ptr %58, align 8, !tbaa !70
  %61 = load i8, ptr %59, align 1, !tbaa !20
  %62 = zext i8 %61 to i32
  br label %68

63:                                               ; preds = %42
  %64 = load ptr, ptr %2, align 8, !tbaa !18
  %65 = getelementptr inbounds nuw %struct.LexState, ptr %64, i32 0, i32 7
  %66 = load ptr, ptr %65, align 8, !tbaa !57
  %67 = call i32 @luaZ_fill(ptr noundef %66)
  br label %68

68:                                               ; preds = %63, %54
  %69 = phi i32 [ %62, %54 ], [ %67, %63 ]
  %70 = load ptr, ptr %2, align 8, !tbaa !18
  %71 = getelementptr inbounds nuw %struct.LexState, ptr %70, i32 0, i32 0
  store i32 %69, ptr %71, align 8, !tbaa !55
  %72 = load i64, ptr %3, align 8, !tbaa !32
  %73 = add i64 %72, 1
  store i64 %73, ptr %3, align 8, !tbaa !32
  br label %37

74:                                               ; preds = %37
  %75 = load ptr, ptr %2, align 8, !tbaa !18
  %76 = getelementptr inbounds nuw %struct.LexState, ptr %75, i32 0, i32 0
  %77 = load i32, ptr %76, align 8, !tbaa !55
  %78 = load i32, ptr %4, align 4, !tbaa !11
  %79 = icmp eq i32 %77, %78
  br i1 %79, label %80, label %83

80:                                               ; preds = %74
  %81 = load i64, ptr %3, align 8, !tbaa !32
  %82 = add i64 %81, 2
  br label %88

83:                                               ; preds = %74
  %84 = load i64, ptr %3, align 8, !tbaa !32
  %85 = icmp eq i64 %84, 0
  %86 = select i1 %85, i32 1, i32 0
  %87 = sext i32 %86 to i64
  br label %88

88:                                               ; preds = %83, %80
  %89 = phi i64 [ %82, %80 ], [ %87, %83 ]
  call void @llvm.lifetime.end.p0(i64 4, ptr %4) #6
  call void @llvm.lifetime.end.p0(i64 8, ptr %3) #6
  ret i64 %89
}