; Function Attrs: nounwind uwtable
define internal fastcc i64 @skip_sep(ptr noundef captures(none) %0) unnamed_addr #0 {
  %2 = load i32, ptr %0, align 8, !tbaa !51
  %3 = getelementptr inbounds nuw i8, ptr %0, i64 72
  %4 = load ptr, ptr %3, align 8, !tbaa !27
  %5 = getelementptr inbounds nuw i8, ptr %4, i64 8
  %6 = load i64, ptr %5, align 8, !tbaa !28
  %7 = add i64 %6, 1
  %8 = getelementptr inbounds nuw i8, ptr %4, i64 16
  %9 = load i64, ptr %8, align 8, !tbaa !31
  %10 = icmp ugt i64 %7, %9
  br i1 %10, label %11, label %._crit_edge.i

._crit_edge.i:                                    ; preds = %1
  %.pre.i = load ptr, ptr %4, align 8, !tbaa !32
  br label %save.exit

11:                                               ; preds = %1
  %12 = icmp ugt i64 %9, 4611686018427387902
  br i1 %12, label %13, label %14

13:                                               ; preds = %11
  tail call fastcc void @lexerror(ptr noundef nonnull readonly %0, ptr noundef nonnull @.str.42, i32 noundef 0) #7
  unreachable

14:                                               ; preds = %11
  %15 = shl nuw nsw i64 %9, 1
  %16 = getelementptr inbounds nuw i8, ptr %0, i64 56
  %17 = load ptr, ptr %16, align 8, !tbaa !14
  %18 = load ptr, ptr %4, align 8, !tbaa !32
  %19 = tail call ptr @luaM_saferealloc_(ptr noundef %17, ptr noundef %18, i64 noundef %9, i64 noundef %15) #6
  store ptr %19, ptr %4, align 8, !tbaa !32
  store i64 %15, ptr %8, align 8, !tbaa !31
  %.pre15.i = load i64, ptr %5, align 8, !tbaa !28
  %.pre16.i = add i64 %.pre15.i, 1
  br label %save.exit

save.exit:                                        ; preds = %._crit_edge.i, %14
  %.pre-phi.i = phi i64 [ %7, %._crit_edge.i ], [ %.pre16.i, %14 ]
  %20 = phi i64 [ %6, %._crit_edge.i ], [ %.pre15.i, %14 ]
  %21 = phi ptr [ %.pre.i, %._crit_edge.i ], [ %19, %14 ]
  %22 = trunc i32 %2 to i8
  store i64 %.pre-phi.i, ptr %5, align 8, !tbaa !28
  %23 = getelementptr inbounds nuw i8, ptr %21, i64 %20
  store i8 %22, ptr %23, align 1, !tbaa !13
  %24 = getelementptr inbounds nuw i8, ptr %0, i64 64
  %25 = load ptr, ptr %24, align 8, !tbaa !53
  %26 = load i64, ptr %25, align 8, !tbaa !59
  %27 = add i64 %26, -1
  store i64 %27, ptr %25, align 8, !tbaa !59
  %.not = icmp eq i64 %26, 0
  br i1 %.not, label %34, label %28

28:                                               ; preds = %save.exit
  %29 = getelementptr inbounds nuw i8, ptr %25, i64 8
  %30 = load ptr, ptr %29, align 8, !tbaa !61
  %31 = getelementptr inbounds nuw i8, ptr %30, i64 1
  store ptr %31, ptr %29, align 8, !tbaa !61
  %32 = load i8, ptr %30, align 1, !tbaa !13
  %33 = zext i8 %32 to i32
  br label %36

34:                                               ; preds = %save.exit
  %35 = tail call i32 @luaZ_fill(ptr noundef nonnull %25) #6
  br label %36

36:                                               ; preds = %34, %28
  %37 = phi i32 [ %33, %28 ], [ %35, %34 ]
  store i32 %37, ptr %0, align 8, !tbaa !51
  %38 = icmp eq i32 %37, 61
  br i1 %38, label %.lr.ph, label %._crit_edge

.lr.ph:                                           ; preds = %36
  %39 = getelementptr inbounds nuw i8, ptr %0, i64 56
  br label %40

40:                                               ; preds = %.lr.ph, %70
  %.028 = phi i64 [ 0, %.lr.ph ], [ %72, %70 ]
  %41 = load ptr, ptr %3, align 8, !tbaa !27
  %42 = getelementptr inbounds nuw i8, ptr %41, i64 8
  %43 = load i64, ptr %42, align 8, !tbaa !28
  %44 = add i64 %43, 1
  %45 = getelementptr inbounds nuw i8, ptr %41, i64 16
  %46 = load i64, ptr %45, align 8, !tbaa !31
  %47 = icmp ugt i64 %44, %46
  br i1 %47, label %48, label %._crit_edge.i20

._crit_edge.i20:                                  ; preds = %40
  %.pre.i21 = load ptr, ptr %41, align 8, !tbaa !32
  br label %save.exit25

48:                                               ; preds = %40
  %49 = icmp ugt i64 %46, 4611686018427387902
  br i1 %49, label %50, label %51

50:                                               ; preds = %48
  tail call fastcc void @lexerror(ptr noundef nonnull readonly %0, ptr noundef nonnull @.str.42, i32 noundef 0) #7
  unreachable

51:                                               ; preds = %48
  %52 = shl nuw nsw i64 %46, 1
  %53 = load ptr, ptr %39, align 8, !tbaa !14
  %54 = load ptr, ptr %41, align 8, !tbaa !32
  %55 = tail call ptr @luaM_saferealloc_(ptr noundef %53, ptr noundef %54, i64 noundef %46, i64 noundef %52) #6
  store ptr %55, ptr %41, align 8, !tbaa !32
  store i64 %52, ptr %45, align 8, !tbaa !31
  %.pre15.i23 = load i64, ptr %42, align 8, !tbaa !28
  %.pre16.i24 = add i64 %.pre15.i23, 1
  br label %save.exit25

save.exit25:                                      ; preds = %._crit_edge.i20, %51
  %.pre-phi.i22 = phi i64 [ %44, %._crit_edge.i20 ], [ %.pre16.i24, %51 ]
  %56 = phi i64 [ %43, %._crit_edge.i20 ], [ %.pre15.i23, %51 ]
  %57 = phi ptr [ %.pre.i21, %._crit_edge.i20 ], [ %55, %51 ]
  store i64 %.pre-phi.i22, ptr %42, align 8, !tbaa !28
  %58 = getelementptr inbounds nuw i8, ptr %57, i64 %56
  store i8 61, ptr %58, align 1, !tbaa !13
  %59 = load ptr, ptr %24, align 8, !tbaa !53
  %60 = load i64, ptr %59, align 8, !tbaa !59
  %61 = add i64 %60, -1
  store i64 %61, ptr %59, align 8, !tbaa !59
  %.not19 = icmp eq i64 %60, 0
  br i1 %.not19, label %68, label %62

62:                                               ; preds = %save.exit25
  %63 = getelementptr inbounds nuw i8, ptr %59, i64 8
  %64 = load ptr, ptr %63, align 8, !tbaa !61
  %65 = getelementptr inbounds nuw i8, ptr %64, i64 1
  store ptr %65, ptr %63, align 8, !tbaa !61
  %66 = load i8, ptr %64, align 1, !tbaa !13
  %67 = zext i8 %66 to i32
  br label %70

68:                                               ; preds = %save.exit25
  %69 = tail call i32 @luaZ_fill(ptr noundef nonnull %59) #6
  br label %70

70:                                               ; preds = %68, %62
  %71 = phi i32 [ %67, %62 ], [ %69, %68 ]
  store i32 %71, ptr %0, align 8, !tbaa !51
  %72 = add i64 %.028, 1
  %73 = icmp eq i32 %71, 61
  br i1 %73, label %40, label %._crit_edge

._crit_edge:                                      ; preds = %70, %36
  %.lcssa = phi i32 [ %37, %36 ], [ %71, %70 ]
  %.0.lcssa = phi i64 [ 0, %36 ], [ %72, %70 ]
  %74 = icmp eq i32 %.lcssa, %2
  %75 = add i64 %.0.lcssa, 2
  %76 = icmp eq i64 %.0.lcssa, 0
  %77 = zext i1 %76 to i64
  %78 = select i1 %74, i64 %75, i64 %77
  ret i64 %78
}